target datalayout = "e-m:e-p270:32:32-p271:32:32-p272:64:64-i64:64-i128:128-f80:128-n8:16:32:64-S128"
target triple = "x86_64-pc-linux-gnu"

%struct.knx_keyring_ia_seqs = type { ptr, i16, i64 }

@knx_keyring_ia_seqs = hidden global ptr null, align 8
@.str.26 = private unnamed_addr constant [23 x i8] c"IA %u.%u.%u SeqNr %lu\0A\00", align 1

; Function Attrs: null_pointer_is_valid sspstrong uwtable
define internal i64 @read_seq(ptr noundef %0) #0 {
  %2 = alloca ptr, align 8
  %3 = alloca i64, align 8
  store ptr %0, ptr %2, align 8
  call void @llvm.lifetime.start.p0(i64 8, ptr %3) #10
  %4 = load ptr, ptr %2, align 8
  %5 = call zeroext i1 @ws_strtou64(ptr noundef %4, ptr noundef null, ptr noundef %3)
  br i1 %5, label %6, label %8

6:                                                ; preds = %1
  %7 = load i64, ptr %3, align 8
  br label %9

8:                                                ; preds = %1
  br label %9

9:                                                ; preds = %8, %6
  %10 = phi i64 [ %7, %6 ], [ 0, %8 ]
  call void @llvm.lifetime.end.p0(i64 8, ptr %3) #10
  ret i64 %10
}

; Function Attrs: null_pointer_is_valid sspstrong uwtable
define internal void @add_ia_seq(i16 noundef zeroext %0, ptr noundef %1, ptr noundef %2) #0 {
  %4 = alloca i16, align 2
  %5 = alloca ptr, align 8
  %6 = alloca ptr, align 8
  %7 = alloca i64, align 8
  %8 = alloca ptr, align 8
  %9 = alloca ptr, align 8
  %10 = alloca i32, align 4
  store i16 %0, ptr %4, align 2
  store ptr %1, ptr %5, align 8
  store ptr %2, ptr %6, align 8
  call void @llvm.lifetime.start.p0(i64 8, ptr %7) #10
  %11 = load ptr, ptr %5, align 8
  %12 = call i64 @read_seq(ptr noundef %11)
  store i64 %12, ptr %7, align 8
  call void @llvm.lifetime.start.p0(i64 8, ptr %8) #10
  store ptr @knx_keyring_ia_seqs, ptr %8, align 8
  call void @llvm.lifetime.start.p0(i64 8, ptr %9) #10
  br label %13

13:                                               ; preds = %33, %3
  %14 = load ptr, ptr %8, align 8
  %15 = load ptr, ptr %14, align 8
  store ptr %15, ptr %9, align 8
  %16 = icmp ne ptr %15, null
  br i1 %16, label %17, label %36

17:                                               ; preds = %13
  %18 = load ptr, ptr %9, align 8
  %19 = getelementptr inbounds nuw %struct.knx_keyring_ia_seqs, ptr %18, i32 0, i32 1
  %20 = load i16, ptr %19, align 8
  %21 = zext i16 %20 to i32
  %22 = load i16, ptr %4, align 2
  %23 = zext i16 %22 to i32
  %24 = icmp eq i32 %21, %23
  br i1 %24, label %25, label %33

25:                                               ; preds = %17
  %26 = load ptr, ptr %9, align 8
  %27 = getelementptr inbounds nuw %struct.knx_keyring_ia_seqs, ptr %26, i32 0, i32 2
  %28 = load i64, ptr %27, align 8
  %29 = load i64, ptr %7, align 8
  %30 = icmp eq i64 %28, %29
  br i1 %30, label %31, label %32

31:                                               ; preds = %25
  store i32 1, ptr %10, align 4
  br label %71

32:                                               ; preds = %25
  br label %33

33:                                               ; preds = %32, %17
  %34 = load ptr, ptr %9, align 8
  %35 = getelementptr inbounds nuw %struct.knx_keyring_ia_seqs, ptr %34, i32 0, i32 0
  store ptr %35, ptr %8, align 8
  br label %13, !llvm.loop !30

36:                                               ; preds = %13
  %37 = load ptr, ptr %6, align 8
  %38 = icmp ne ptr %37, null
  br i1 %38, label %39, label %54

39:                                               ; preds = %36
  %40 = load ptr, ptr %6, align 8
  %41 = load i16, ptr %4, align 2
  %42 = zext i16 %41 to i32
  %43 = ashr i32 %42, 12
  %44 = and i32 %43, 15
  %45 = load i16, ptr %4, align 2
  %46 = zext i16 %45 to i32
  %47 = ashr i32 %46, 8
  %48 = and i32 %47, 15
  %49 = load i16, ptr %4, align 2
  %50 = zext i16 %49 to i32
  %51 = and i32 %50, 255
  %52 = load i64, ptr %7, align 8
  %53 = call i32 (ptr, i32, ptr, ...) @__fprintf_chk(ptr noundef %40, i32 noundef 2, ptr noundef @.str.26, i32 noundef %44, i32 noundef %48, i32 noundef %51, i64 noundef %52)
  br label %54

54:                                               ; preds = %39, %36
  %55 = call ptr @wmem_epan_scope()
  %56 = call noalias ptr @wmem_alloc(ptr noundef %55, i64 noundef 24) #12
  store ptr %56, ptr %9, align 8
  %57 = load ptr, ptr %9, align 8
  %58 = icmp ne ptr %57, null
  br i1 %58, label %59, label %70

59:                                               ; preds = %54
  %60 = load ptr, ptr %9, align 8
  %61 = getelementptr inbounds nuw %struct.knx_keyring_ia_seqs, ptr %60, i32 0, i32 0
  store ptr null, ptr %61, align 8
  %62 = load i16, ptr %4, align 2
  %63 = load ptr, ptr %9, align 8
  %64 = getelementptr inbounds nuw %struct.knx_keyring_ia_seqs, ptr %63, i32 0, i32 1
  store i16 %62, ptr %64, align 8
  %65 = load i64, ptr %7, align 8
  %66 = load ptr, ptr %9, align 8
  %67 = getelementptr inbounds nuw %struct.knx_keyring_ia_seqs, ptr %66, i32 0, i32 2
  store i64 %65, ptr %67, align 8
  %68 = load ptr, ptr %9, align 8
  %69 = load ptr, ptr %8, align 8
  store ptr %68, ptr %69, align 8
  br label %70

70:                                               ; preds = %59, %54
  store i32 0, ptr %10, align 4
  br label %71

71:                                               ; preds = %70, %31
  call void @llvm.lifetime.end.p0(i64 8, ptr %9) #10
  call void @llvm.lifetime.end.p0(i64 8, ptr %8) #10
  call void @llvm.lifetime.end.p0(i64 8, ptr %7) #10
  %72 = load i32, ptr %10, align 4
  switch i32 %72, label %74 [
    i32 0, label %73
    i32 1, label %73
  ]

73:                                               ; preds = %71, %71
  ret void

74:                                               ; preds = %71
  unreachable
}