; Function Attrs: null_pointer_is_valid sspstrong uwtable
define internal fastcc void @add_ia_seq(i16 noundef zeroext %0, ptr noundef %1, ptr noundef %2) unnamed_addr #0 {
  %4 = alloca i64, align 8
  call void @llvm.lifetime.start.p0(i64 8, ptr nonnull %4) #14
  %5 = call zeroext i1 @ws_strtou64(ptr noundef %1, ptr noundef null, ptr noundef nonnull %4)
  %6 = load i64, ptr %4, align 8
  %7 = select i1 %5, i64 %6, i64 0
  call void @llvm.lifetime.end.p0(i64 8, ptr nonnull %4) #14
  %8 = load ptr, ptr @knx_keyring_ia_seqs, align 8
  %.not26 = icmp eq ptr %8, null
  br i1 %.not26, label %._crit_edge, label %.lr.ph

.lr.ph:                                           ; preds = %3, %17
  %9 = phi ptr [ %18, %17 ], [ %8, %3 ]
  %10 = getelementptr inbounds nuw i8, ptr %9, i64 8
  %11 = load i16, ptr %10, align 8
  %12 = icmp eq i16 %11, %0
  br i1 %12, label %13, label %17

13:                                               ; preds = %.lr.ph
  %14 = getelementptr inbounds nuw i8, ptr %9, i64 16
  %15 = load i64, ptr %14, align 8
  %16 = icmp eq i64 %15, %7
  br i1 %16, label %.loopexit, label %17

17:                                               ; preds = %13, %.lr.ph
  %18 = load ptr, ptr %9, align 8
  %.not = icmp eq ptr %18, null
  br i1 %.not, label %._crit_edge, label %.lr.ph, !llvm.loop !42

._crit_edge:                                      ; preds = %17, %3
  %.0.lcssa = phi ptr [ @knx_keyring_ia_seqs, %3 ], [ %9, %17 ]
  %.not23 = icmp eq ptr %2, null
  br i1 %.not23, label %26, label %19

19:                                               ; preds = %._crit_edge
  %20 = zext i16 %0 to i32
  %21 = lshr i32 %20, 12
  %22 = lshr i32 %20, 8
  %23 = and i32 %22, 15
  %24 = and i32 %20, 255
  %25 = call i32 (ptr, i32, ptr, ...) @__fprintf_chk(ptr noundef nonnull %2, i32 noundef 2, ptr noundef nonnull @.str.26, i32 noundef %21, i32 noundef %23, i32 noundef %24, i64 noundef %7)
  br label %26

26:                                               ; preds = %19, %._crit_edge
  %27 = call ptr @wmem_epan_scope()
  %28 = call noalias dereferenceable_or_null(24) ptr @wmem_alloc(ptr noundef %27, i64 noundef 24) #16
  %.not24 = icmp eq ptr %28, null
  br i1 %.not24, label %.loopexit, label %29

29:                                               ; preds = %26
  store ptr null, ptr %28, align 8
  %30 = getelementptr inbounds nuw i8, ptr %28, i64 8
  store i16 %0, ptr %30, align 8
  %31 = getelementptr inbounds nuw i8, ptr %28, i64 16
  store i64 %7, ptr %31, align 8
  store ptr %28, ptr %.0.lcssa, align 8
  br label %.loopexit

.loopexit:                                        ; preds = %13, %26, %29
  ret void
}